target datalayout = "e-m:e-p270:32:32-p271:32:32-p272:64:64-i64:64-i128:128-f80:128-n8:16:32:64-S128"
target triple = "x86_64-pc-linux-gnu"

%struct.anon = type { i64, ptr, double, double }

@.str.37 = private unnamed_addr constant [19 x i8] c"N_VGetArrayPointer\00", align 1
@stderr = external global ptr, align 8
@.str.39 = private unnamed_addr constant [55 x i8] c"\0ASUNDIALS_ERROR: %s() failed - returned NULL pointer\0A\0A\00", align 1
@.str.40 = private unnamed_addr constant [46 x i8] c"\0ASUNDIALS_ERROR: %s() failed with flag = %d\0A\0A\00", align 1
@.str.41 = private unnamed_addr constant [53 x i8] c"\0AMEMORY_ERROR: %s() failed - returned NULL pointer\0A\0A\00", align 1

; Function Attrs: nounwind uwtable
define internal i32 @check_flag(ptr noundef %0, ptr noundef %1, i32 noundef %2) #0 {
  %4 = alloca i32, align 4
  %5 = alloca ptr, align 8
  %6 = alloca ptr, align 8
  %7 = alloca i32, align 4
  %8 = alloca ptr, align 8
  %9 = alloca i32, align 4
  store ptr %0, ptr %5, align 8, !tbaa !8
  store ptr %1, ptr %6, align 8, !tbaa !29
  store i32 %2, ptr %7, align 4, !tbaa !12
  call void @llvm.lifetime.start.p0(i64 8, ptr %8) #7
  %10 = load i32, ptr %7, align 4, !tbaa !12
  %11 = icmp eq i32 %10, 0
  br i1 %11, label %12, label %19

12:                                               ; preds = %3
  %13 = load ptr, ptr %5, align 8, !tbaa !8
  %14 = icmp eq ptr %13, null
  br i1 %14, label %15, label %19

15:                                               ; preds = %12
  %16 = load ptr, ptr @stderr, align 8, !tbaa !27
  %17 = load ptr, ptr %6, align 8, !tbaa !29
  %18 = call i32 (ptr, ptr, ...) @fprintf(ptr noundef %16, ptr noundef @.str.39, ptr noundef %17) #7
  store i32 1, ptr %4, align 4
  store i32 1, ptr %9, align 4
  br label %47

19:                                               ; preds = %12, %3
  %20 = load i32, ptr %7, align 4, !tbaa !12
  %21 = icmp eq i32 %20, 1
  br i1 %21, label %22, label %34

22:                                               ; preds = %19
  %23 = load ptr, ptr %5, align 8, !tbaa !8
  store ptr %23, ptr %8, align 8, !tbaa !31
  %24 = load ptr, ptr %8, align 8, !tbaa !31
  %25 = load i32, ptr %24, align 4, !tbaa !12
  %26 = icmp slt i32 %25, 0
  br i1 %26, label %27, label %33

27:                                               ; preds = %22
  %28 = load ptr, ptr @stderr, align 8, !tbaa !27
  %29 = load ptr, ptr %6, align 8, !tbaa !29
  %30 = load ptr, ptr %8, align 8, !tbaa !31
  %31 = load i32, ptr %30, align 4, !tbaa !12
  %32 = call i32 (ptr, ptr, ...) @fprintf(ptr noundef %28, ptr noundef @.str.40, ptr noundef %29, i32 noundef %31) #7
  store i32 1, ptr %4, align 4
  store i32 1, ptr %9, align 4
  br label %47

33:                                               ; preds = %22
  br label %45

34:                                               ; preds = %19
  %35 = load i32, ptr %7, align 4, !tbaa !12
  %36 = icmp eq i32 %35, 2
  br i1 %36, label %37, label %44

37:                                               ; preds = %34
  %38 = load ptr, ptr %5, align 8, !tbaa !8
  %39 = icmp eq ptr %38, null
  br i1 %39, label %40, label %44

40:                                               ; preds = %37
  %41 = load ptr, ptr @stderr, align 8, !tbaa !27
  %42 = load ptr, ptr %6, align 8, !tbaa !29
  %43 = call i32 (ptr, ptr, ...) @fprintf(ptr noundef %41, ptr noundef @.str.41, ptr noundef %42) #7
  store i32 1, ptr %4, align 4
  store i32 1, ptr %9, align 4
  br label %47

44:                                               ; preds = %37, %34
  br label %45

45:                                               ; preds = %44, %33
  br label %46

46:                                               ; preds = %45
  store i32 0, ptr %4, align 4
  store i32 1, ptr %9, align 4
  br label %47

47:                                               ; preds = %46, %40, %27, %15
  call void @llvm.lifetime.end.p0(i64 8, ptr %8) #7
  %48 = load i32, ptr %4, align 4
  ret i32 %48
}

; Function Attrs: nounwind uwtable
define internal i32 @Jac(ptr noundef %0, ptr noundef %1, double noundef %2, ptr noundef %3, ptr noundef %4, ptr noundef %5, ptr noundef %6) #0 {
  %8 = alloca i32, align 4
  %9 = alloca ptr, align 8
  %10 = alloca ptr, align 8
  %11 = alloca double, align 8
  %12 = alloca ptr, align 8
  %13 = alloca ptr, align 8
  %14 = alloca ptr, align 8
  %15 = alloca ptr, align 8
  %16 = alloca ptr, align 8
  %17 = alloca i64, align 8
  %18 = alloca double, align 8
  %19 = alloca ptr, align 8
  %20 = alloca ptr, align 8
  %21 = alloca ptr, align 8
  %22 = alloca double, align 8
  %23 = alloca double, align 8
  %24 = alloca i64, align 8
  %25 = alloca i32, align 4
  store ptr %0, ptr %9, align 8, !tbaa !14
  store ptr %1, ptr %10, align 8, !tbaa !14
  store double %2, ptr %11, align 8, !tbaa !4
  store ptr %3, ptr %12, align 8, !tbaa !14
  store ptr %4, ptr %13, align 8, !tbaa !14
  store ptr %5, ptr %14, align 8, !tbaa !8
  store ptr %6, ptr %15, align 8, !tbaa !14
  call void @llvm.lifetime.start.p0(i64 8, ptr %16) #7
  %26 = load ptr, ptr %14, align 8, !tbaa !8
  store ptr %26, ptr %16, align 8, !tbaa !8
  call void @llvm.lifetime.start.p0(i64 8, ptr %17) #7
  %27 = load ptr, ptr %16, align 8, !tbaa !8
  %28 = getelementptr inbounds nuw %struct.anon, ptr %27, i32 0, i32 0
  %29 = load i64, ptr %28, align 8, !tbaa !20
  store i64 %29, ptr %17, align 8, !tbaa !10
  call void @llvm.lifetime.start.p0(i64 8, ptr %18) #7
  %30 = load ptr, ptr %16, align 8, !tbaa !8
  %31 = getelementptr inbounds nuw %struct.anon, ptr %30, i32 0, i32 2
  %32 = load double, ptr %31, align 8, !tbaa !22
  store double %32, ptr %18, align 8, !tbaa !4
  call void @llvm.lifetime.start.p0(i64 8, ptr %19) #7
  %33 = load ptr, ptr %16, align 8, !tbaa !8
  %34 = getelementptr inbounds nuw %struct.anon, ptr %33, i32 0, i32 1
  %35 = load ptr, ptr %34, align 8, !tbaa !24
  store ptr %35, ptr %19, align 8, !tbaa !18
  call void @llvm.lifetime.start.p0(i64 8, ptr %20) #7
  store ptr null, ptr %20, align 8, !tbaa !18
  call void @llvm.lifetime.start.p0(i64 8, ptr %21) #7
  store ptr null, ptr %21, align 8, !tbaa !18
  call void @llvm.lifetime.start.p0(i64 8, ptr %22) #7
  call void @llvm.lifetime.start.p0(i64 8, ptr %23) #7
  call void @llvm.lifetime.start.p0(i64 8, ptr %24) #7
  %36 = load ptr, ptr %9, align 8, !tbaa !14
  %37 = call ptr @N_VGetArrayPointer(ptr noundef %36)
  store ptr %37, ptr %20, align 8, !tbaa !18
  %38 = load ptr, ptr %20, align 8, !tbaa !18
  %39 = call i32 @check_flag(ptr noundef %38, ptr noundef @.str.37, i32 noundef 0)
  %40 = icmp ne i32 %39, 0
  br i1 %40, label %41, label %42

41:                                               ; preds = %7
  store i32 1, ptr %8, align 4
  store i32 1, ptr %25, align 4
  br label %125

42:                                               ; preds = %7
  %43 = load ptr, ptr %10, align 8, !tbaa !14
  %44 = call ptr @N_VGetArrayPointer(ptr noundef %43)
  store ptr %44, ptr %21, align 8, !tbaa !18
  %45 = load ptr, ptr %21, align 8, !tbaa !18
  %46 = call i32 @check_flag(ptr noundef %45, ptr noundef @.str.37, i32 noundef 0)
  %47 = icmp ne i32 %46, 0
  br i1 %47, label %48, label %49

48:                                               ; preds = %42
  store i32 1, ptr %8, align 4
  store i32 1, ptr %25, align 4
  br label %125

49:                                               ; preds = %42
  %50 = load ptr, ptr %10, align 8, !tbaa !14
  call void @N_VConst(double noundef 0.000000e+00, ptr noundef %50)
  store i64 1, ptr %24, align 8, !tbaa !10
  br label %51

51:                                               ; preds = %121, %49
  %52 = load i64, ptr %24, align 8, !tbaa !10
  %53 = load i64, ptr %17, align 8, !tbaa !10
  %54 = sub nsw i64 %53, 1
  %55 = icmp slt i64 %52, %54
  br i1 %55, label %56, label %124

56:                                               ; preds = %51
  %57 = load ptr, ptr %19, align 8, !tbaa !18
  %58 = load i64, ptr %24, align 8, !tbaa !10
  %59 = getelementptr inbounds double, ptr %57, i64 %58
  %60 = load double, ptr %59, align 8, !tbaa !4
  %61 = load ptr, ptr %19, align 8, !tbaa !18
  %62 = load i64, ptr %24, align 8, !tbaa !10
  %63 = sub nsw i64 %62, 1
  %64 = getelementptr inbounds double, ptr %61, i64 %63
  %65 = load double, ptr %64, align 8, !tbaa !4
  %66 = fsub double %60, %65
  store double %66, ptr %22, align 8, !tbaa !4
  %67 = load ptr, ptr %19, align 8, !tbaa !18
  %68 = load i64, ptr %24, align 8, !tbaa !10
  %69 = add nsw i64 %68, 1
  %70 = getelementptr inbounds double, ptr %67, i64 %69
  %71 = load double, ptr %70, align 8, !tbaa !4
  %72 = load ptr, ptr %19, align 8, !tbaa !18
  %73 = load i64, ptr %24, align 8, !tbaa !10
  %74 = getelementptr inbounds double, ptr %72, i64 %73
  %75 = load double, ptr %74, align 8, !tbaa !4
  %76 = fsub double %71, %75
  store double %76, ptr %23, align 8, !tbaa !4
  %77 = load ptr, ptr %20, align 8, !tbaa !18
  %78 = load i64, ptr %24, align 8, !tbaa !10
  %79 = sub nsw i64 %78, 1
  %80 = getelementptr inbounds double, ptr %77, i64 %79
  %81 = load double, ptr %80, align 8, !tbaa !4
  %82 = load double, ptr %18, align 8, !tbaa !4
  %83 = fmul double %81, %82
  %84 = fmul double %83, 2.000000e+00
  %85 = load double, ptr %22, align 8, !tbaa !4
  %86 = load double, ptr %22, align 8, !tbaa !4
  %87 = load double, ptr %23, align 8, !tbaa !4
  %88 = fadd double %86, %87
  %89 = fmul double %85, %88
  %90 = fdiv double %84, %89
  %91 = load ptr, ptr %20, align 8, !tbaa !18
  %92 = load i64, ptr %24, align 8, !tbaa !10
  %93 = getelementptr inbounds double, ptr %91, i64 %92
  %94 = load double, ptr %93, align 8, !tbaa !4
  %95 = load double, ptr %18, align 8, !tbaa !4
  %96 = fmul double %94, %95
  %97 = fmul double %96, 2.000000e+00
  %98 = load double, ptr %22, align 8, !tbaa !4
  %99 = load double, ptr %23, align 8, !tbaa !4
  %100 = fmul double %98, %99
  %101 = fdiv double %97, %100
  %102 = fsub double %90, %101
  %103 = load ptr, ptr %20, align 8, !tbaa !18
  %104 = load i64, ptr %24, align 8, !tbaa !10
  %105 = add nsw i64 %104, 1
  %106 = getelementptr inbounds double, ptr %103, i64 %105
  %107 = load double, ptr %106, align 8, !tbaa !4
  %108 = load double, ptr %18, align 8, !tbaa !4
  %109 = fmul double %107, %108
  %110 = fmul double %109, 2.000000e+00
  %111 = load double, ptr %23, align 8, !tbaa !4
  %112 = load double, ptr %22, align 8, !tbaa !4
  %113 = load double, ptr %23, align 8, !tbaa !4
  %114 = fadd double %112, %113
  %115 = fmul double %111, %114
  %116 = fdiv double %110, %115
  %117 = fadd double %102, %116
  %118 = load ptr, ptr %21, align 8, !tbaa !18
  %119 = load i64, ptr %24, align 8, !tbaa !10
  %120 = getelementptr inbounds double, ptr %118, i64 %119
  store double %117, ptr %120, align 8, !tbaa !4
  br label %121

121:                                              ; preds = %56
  %122 = load i64, ptr %24, align 8, !tbaa !10
  %123 = add nsw i64 %122, 1
  store i64 %123, ptr %24, align 8, !tbaa !10
  br label %51

124:                                              ; preds = %51
  store i32 0, ptr %8, align 4
  store i32 1, ptr %25, align 4
  br label %125

125:                                              ; preds = %124, %48, %41
  call void @llvm.lifetime.end.p0(i64 8, ptr %24) #7
  call void @llvm.lifetime.end.p0(i64 8, ptr %23) #7
  call void @llvm.lifetime.end.p0(i64 8, ptr %22) #7
  call void @llvm.lifetime.end.p0(i64 8, ptr %21) #7
  call void @llvm.lifetime.end.p0(i64 8, ptr %20) #7
  call void @llvm.lifetime.end.p0(i64 8, ptr %19) #7
  call void @llvm.lifetime.end.p0(i64 8, ptr %18) #7
  call void @llvm.lifetime.end.p0(i64 8, ptr %17) #7
  call void @llvm.lifetime.end.p0(i64 8, ptr %16) #7
  %126 = load i32, ptr %8, align 4
  ret i32 %126
}