; Function Attrs: nounwind uwtable
define internal range(i32 0, 2) i32 @Jac(ptr noundef %0, ptr noundef %1, double %2, ptr readnone captures(none) %3, ptr readnone captures(none) %4, ptr noundef readonly captures(none) %5, ptr readnone captures(none) %6) #0 {
  %8 = load i64, ptr %5, align 8, !tbaa !9
  %9 = getelementptr inbounds nuw i8, ptr %5, i64 16
  %10 = load double, ptr %9, align 8, !tbaa !14
  %11 = getelementptr inbounds nuw i8, ptr %5, i64 8
  %12 = load ptr, ptr %11, align 8, !tbaa !16
  %13 = tail call ptr @N_VGetArrayPointer(ptr noundef %0) #11
  %14 = icmp eq ptr %13, null
  br i1 %14, label %.loopexit.sink.split, label %15

15:                                               ; preds = %7
  %16 = tail call ptr @N_VGetArrayPointer(ptr noundef %1) #11
  %17 = icmp eq ptr %16, null
  br i1 %17, label %.loopexit.sink.split, label %18

18:                                               ; preds = %15
  tail call void @N_VConst(double noundef 0.000000e+00, ptr noundef %1) #11
  %19 = icmp sgt i64 %8, 2
  br i1 %19, label %.lr.ph.preheader, label %.loopexit

.lr.ph.preheader:                                 ; preds = %18
  %20 = add nsw i64 %8, -2
  br label %.lr.ph

.lr.ph:                                           ; preds = %.lr.ph.preheader, %.lr.ph
  %.047 = phi i64 [ %27, %.lr.ph ], [ 1, %.lr.ph.preheader ]
  %21 = getelementptr inbounds nuw double, ptr %12, i64 %.047
  %22 = load double, ptr %21, align 8, !tbaa !17
  %23 = add nsw i64 %.047, -1
  %24 = getelementptr inbounds double, ptr %12, i64 %23
  %25 = load double, ptr %24, align 8, !tbaa !17
  %26 = fsub double %22, %25
  %27 = add nuw nsw i64 %.047, 1
  %28 = getelementptr inbounds nuw double, ptr %12, i64 %27
  %29 = load double, ptr %28, align 8, !tbaa !17
  %30 = fsub double %29, %22
  %31 = getelementptr inbounds double, ptr %13, i64 %23
  %32 = load double, ptr %31, align 8, !tbaa !17
  %33 = fmul double %10, %32
  %34 = fmul double %33, 2.000000e+00
  %35 = fadd double %26, %30
  %36 = fmul double %26, %35
  %37 = fdiv double %34, %36
  %38 = getelementptr inbounds nuw double, ptr %13, i64 %.047
  %39 = load double, ptr %38, align 8, !tbaa !17
  %40 = fmul double %10, %39
  %41 = fmul double %40, 2.000000e+00
  %42 = fmul double %26, %30
  %43 = fdiv double %41, %42
  %44 = fsub double %37, %43
  %45 = getelementptr inbounds nuw double, ptr %13, i64 %27
  %46 = load double, ptr %45, align 8, !tbaa !17
  %47 = fmul double %10, %46
  %48 = fmul double %47, 2.000000e+00
  %49 = fmul double %30, %35
  %50 = fdiv double %48, %49
  %51 = fadd double %44, %50
  %52 = getelementptr inbounds nuw double, ptr %16, i64 %.047
  store double %51, ptr %52, align 8, !tbaa !17
  %exitcond.not = icmp eq i64 %.047, %20
  br i1 %exitcond.not, label %.loopexit, label %.lr.ph

.loopexit.sink.split:                             ; preds = %15, %7
  %53 = load ptr, ptr @stderr, align 8, !tbaa !4
  %54 = tail call i32 (ptr, ptr, ...) @fprintf(ptr noundef %53, ptr noundef nonnull @.str.39, ptr noundef nonnull @.str.37) #12
  br label %.loopexit

.loopexit:                                        ; preds = %.lr.ph, %.loopexit.sink.split, %18
  %.039 = phi i32 [ 0, %18 ], [ 1, %.loopexit.sink.split ], [ 0, %.lr.ph ]
  ret i32 %.039
}